target datalayout = "e-m:e-p270:32:32-p271:32:32-p272:64:64-i64:64-i128:128-f80:128-n8:16:32:64-S128"
target triple = "x86_64-pc-linux-gnu"

%"class.cvc5::internal::FloatingPoint" = type { %"class.std::unique_ptr" }
%"class.std::unique_ptr" = type { %"struct.std::__uniq_ptr_data" }
%"struct.std::__uniq_ptr_data" = type { %"class.std::__uniq_ptr_impl" }
%"class.std::__uniq_ptr_impl" = type { %"class.std::tuple" }
%"class.std::tuple" = type { %"struct.std::_Tuple_impl" }
%"struct.std::_Tuple_impl" = type { %"struct.std::_Head_base.1" }
%"struct.std::_Head_base.1" = type { ptr }
%"class.cvc5::internal::FloatingPointSize" = type { i32, i32 }
%"class.cvc5::internal::BitVector" = type { i32, %"class.cvc5::internal::Integer" }
%"class.cvc5::internal::Integer" = type { %class.__gmp_expr }
%class.__gmp_expr = type { [1 x %struct.__mpz_struct] }
%struct.__mpz_struct = type { i32, i32, ptr }

@_ZN4cvc58internal13FloatingPointC1ERKNS0_17FloatingPointSizeERKNS0_9BitVectorE = hidden unnamed_addr alias void (ptr, ptr, ptr), ptr @_ZN4cvc58internal13FloatingPointC2ERKNS0_17FloatingPointSizeERKNS0_9BitVectorE

; Function Attrs: mustprogress nounwind uwtable
define linkonce_odr hidden void @_ZN10__gmp_exprIA1_12__mpz_structS1_ED2Ev(ptr noundef nonnull align 8 dereferenceable(16) %0) unnamed_addr #7 comdat align 2 personality ptr @__gxx_personality_v0 {
  %2 = alloca ptr, align 8
  store ptr %0, ptr %2, align 8, !tbaa !115
  %3 = load ptr, ptr %2, align 8
  %4 = getelementptr inbounds nuw %class.__gmp_expr, ptr %3, i32 0, i32 0
  %5 = getelementptr inbounds [1 x %struct.__mpz_struct], ptr %4, i64 0, i64 0
  invoke void @__gmpz_clear(ptr noundef %5)
          to label %6 unwind label %7

6:                                                ; preds = %1
  ret void

7:                                                ; preds = %1
  %8 = landingpad { ptr, i32 }
          catch ptr null
  %9 = extractvalue { ptr, i32 } %8, 0
  call void @__clang_call_terminate(ptr %9) #20
  unreachable
}

; Function Attrs: mustprogress nounwind uwtable
define linkonce_odr hidden void @_ZN4cvc58internal7IntegerD2Ev(ptr noundef nonnull align 8 dereferenceable(16) %0) unnamed_addr #7 comdat align 2 {
  %2 = alloca ptr, align 8
  store ptr %0, ptr %2, align 8, !tbaa !37
  %3 = load ptr, ptr %2, align 8
  %4 = getelementptr inbounds nuw %"class.cvc5::internal::Integer", ptr %3, i32 0, i32 0
  call void @_ZN10__gmp_exprIA1_12__mpz_structS1_ED2Ev(ptr noundef nonnull align 8 dereferenceable(16) %4) #3
  ret void
}

; Function Attrs: inlinehint mustprogress nounwind uwtable
define linkonce_odr hidden noundef i32 @_ZNK4cvc58internal17FloatingPointSize16significandWidthEv(ptr noundef nonnull align 4 dereferenceable(8) %0) #10 comdat align 2 {
  %2 = alloca ptr, align 8
  store ptr %0, ptr %2, align 8, !tbaa !3
  %3 = load ptr, ptr %2, align 8
  %4 = getelementptr inbounds nuw %"class.cvc5::internal::FloatingPointSize", ptr %3, i32 0, i32 1
  %5 = load i32, ptr %4, align 4, !tbaa !43
  ret i32 %5
}

; Function Attrs: inlinehint mustprogress nounwind uwtable
define linkonce_odr hidden noundef i32 @_ZNK4cvc58internal17FloatingPointSize13exponentWidthEv(ptr noundef nonnull align 4 dereferenceable(8) %0) #10 comdat align 2 {
  %2 = alloca ptr, align 8
  store ptr %0, ptr %2, align 8, !tbaa !3
  %3 = load ptr, ptr %2, align 8
  %4 = getelementptr inbounds nuw %"class.cvc5::internal::FloatingPointSize", ptr %3, i32 0, i32 0
  %5 = load i32, ptr %4, align 4, !tbaa !73
  ret i32 %5
}

; Function Attrs: mustprogress nounwind uwtable
define linkonce_odr hidden void @_ZN4cvc58internal9BitVectorD2Ev(ptr noundef nonnull align 8 dereferenceable(24) %0) unnamed_addr #7 comdat align 2 {
  %2 = alloca ptr, align 8
  store ptr %0, ptr %2, align 8, !tbaa !12
  %3 = load ptr, ptr %2, align 8
  %4 = getelementptr inbounds nuw %"class.cvc5::internal::BitVector", ptr %3, i32 0, i32 1
  call void @_ZN4cvc58internal7IntegerD2Ev(ptr noundef nonnull align 8 dereferenceable(16) %4) #3
  ret void
}

; Function Attrs: inlinehint mustprogress nounwind uwtable
define linkonce_odr hidden noundef i32 @_ZNK4cvc58internal17FloatingPointSize22packedSignificandWidthEv(ptr noundef nonnull align 4 dereferenceable(8) %0) #10 comdat align 2 {
  %2 = alloca ptr, align 8
  store ptr %0, ptr %2, align 8, !tbaa !3
  %3 = load ptr, ptr %2, align 8
  %4 = call noundef i32 @_ZNK4cvc58internal17FloatingPointSize16significandWidthEv(ptr noundef nonnull align 4 dereferenceable(8) %3)
  %5 = sub i32 %4, 1
  ret i32 %5
}

; Function Attrs: inlinehint mustprogress uwtable
define linkonce_odr hidden noundef i32 @_ZNK4cvc58internal17FloatingPointSize19packedExponentWidthEv(ptr noundef nonnull align 4 dereferenceable(8) %0) #8 comdat align 2 {
  %2 = alloca ptr, align 8
  store ptr %0, ptr %2, align 8, !tbaa !3
  %3 = load ptr, ptr %2, align 8
  %4 = call noundef i32 @_ZNK4cvc58internal17FloatingPointSize13exponentWidthEv(ptr noundef nonnull align 4 dereferenceable(8) %3)
  ret i32 %4
}

; Function Attrs: mustprogress uwtable
define hidden void @_ZN4cvc58internal13FloatingPoint16makeMinSubnormalERKNS0_17FloatingPointSizeEb(ptr dead_on_unwind noalias writable sret(%"class.cvc5::internal::FloatingPoint") align 8 %0, ptr noundef nonnull align 4 dereferenceable(8) %1, i1 noundef zeroext %2) #4 align 2 personality ptr @__gxx_personality_v0 {
  %4 = alloca ptr, align 8
  %5 = alloca ptr, align 8
  %6 = alloca i8, align 1
  %7 = alloca %"class.cvc5::internal::BitVector", align 8
  %8 = alloca %"class.cvc5::internal::BitVector", align 8
  %9 = alloca ptr, align 8
  %10 = alloca i32, align 4
  %11 = alloca %"class.cvc5::internal::BitVector", align 8
  %12 = alloca %"class.cvc5::internal::BitVector", align 8
  %13 = alloca %"class.cvc5::internal::BitVector", align 8
  store ptr %0, ptr %4, align 8
  store ptr %1, ptr %5, align 8, !tbaa !3
  %14 = zext i1 %2 to i8
  store i8 %14, ptr %6, align 1, !tbaa !19
  call void @llvm.lifetime.start.p0(i64 24, ptr %7) #3
  %15 = load i8, ptr %6, align 1, !tbaa !19, !range !21, !noundef !22
  %16 = trunc i8 %15 to i1
  br i1 %16, label %17, label %18

17:                                               ; preds = %3
  call void @_ZN4cvc58internal9BitVector5mkOneEj(ptr dead_on_unwind writable sret(%"class.cvc5::internal::BitVector") align 8 %7, i32 noundef 1)
  br label %19

18:                                               ; preds = %3
  call void @_ZN4cvc58internal9BitVector6mkZeroEj(ptr dead_on_unwind writable sret(%"class.cvc5::internal::BitVector") align 8 %7, i32 noundef 1)
  br label %19

19:                                               ; preds = %18, %17
  call void @llvm.lifetime.start.p0(i64 24, ptr %8) #3
  %20 = load ptr, ptr %5, align 8, !tbaa !3
  %21 = invoke noundef i32 @_ZNK4cvc58internal17FloatingPointSize19packedExponentWidthEv(ptr noundef nonnull align 4 dereferenceable(8) %20)
          to label %22 unwind label %32

22:                                               ; preds = %19
  invoke void @_ZN4cvc58internal9BitVector6mkZeroEj(ptr dead_on_unwind writable sret(%"class.cvc5::internal::BitVector") align 8 %8, i32 noundef %21)
          to label %23 unwind label %32

23:                                               ; preds = %22
  call void @llvm.lifetime.start.p0(i64 24, ptr %11) #3
  %24 = load ptr, ptr %5, align 8, !tbaa !3
  %25 = invoke noundef i32 @_ZNK4cvc58internal17FloatingPointSize22packedSignificandWidthEv(ptr noundef nonnull align 4 dereferenceable(8) %24)
          to label %26 unwind label %36

26:                                               ; preds = %23
  invoke void @_ZN4cvc58internal9BitVector5mkOneEj(ptr dead_on_unwind writable sret(%"class.cvc5::internal::BitVector") align 8 %11, i32 noundef %25)
          to label %27 unwind label %36

27:                                               ; preds = %26
  %28 = load ptr, ptr %5, align 8, !tbaa !3
  call void @llvm.lifetime.start.p0(i64 24, ptr %12) #3
  call void @llvm.lifetime.start.p0(i64 24, ptr %13) #3
  invoke void @_ZNK4cvc58internal9BitVector6concatERKS1_(ptr dead_on_unwind writable sret(%"class.cvc5::internal::BitVector") align 8 %13, ptr noundef nonnull align 8 dereferenceable(24) %7, ptr noundef nonnull align 8 dereferenceable(24) %8)
          to label %29 unwind label %40

29:                                               ; preds = %27
  invoke void @_ZNK4cvc58internal9BitVector6concatERKS1_(ptr dead_on_unwind writable sret(%"class.cvc5::internal::BitVector") align 8 %12, ptr noundef nonnull align 8 dereferenceable(24) %13, ptr noundef nonnull align 8 dereferenceable(24) %11)
          to label %30 unwind label %44

30:                                               ; preds = %29
  invoke void @_ZN4cvc58internal13FloatingPointC1ERKNS0_17FloatingPointSizeERKNS0_9BitVectorE(ptr noundef nonnull align 8 dereferenceable(8) %0, ptr noundef nonnull align 4 dereferenceable(8) %28, ptr noundef nonnull align 8 dereferenceable(24) %12)
          to label %31 unwind label %48

31:                                               ; preds = %30
  call void @_ZN4cvc58internal9BitVectorD2Ev(ptr noundef nonnull align 8 dereferenceable(24) %12) #3
  call void @_ZN4cvc58internal9BitVectorD2Ev(ptr noundef nonnull align 8 dereferenceable(24) %13) #3
  call void @llvm.lifetime.end.p0(i64 24, ptr %13) #3
  call void @llvm.lifetime.end.p0(i64 24, ptr %12) #3
  call void @_ZN4cvc58internal9BitVectorD2Ev(ptr noundef nonnull align 8 dereferenceable(24) %11) #3
  call void @llvm.lifetime.end.p0(i64 24, ptr %11) #3
  call void @_ZN4cvc58internal9BitVectorD2Ev(ptr noundef nonnull align 8 dereferenceable(24) %8) #3
  call void @llvm.lifetime.end.p0(i64 24, ptr %8) #3
  call void @_ZN4cvc58internal9BitVectorD2Ev(ptr noundef nonnull align 8 dereferenceable(24) %7) #3
  call void @llvm.lifetime.end.p0(i64 24, ptr %7) #3
  ret void

32:                                               ; preds = %22, %19
  %33 = landingpad { ptr, i32 }
          cleanup
  %34 = extractvalue { ptr, i32 } %33, 0
  store ptr %34, ptr %9, align 8
  %35 = extractvalue { ptr, i32 } %33, 1
  store i32 %35, ptr %10, align 4
  br label %55

36:                                               ; preds = %26, %23
  %37 = landingpad { ptr, i32 }
          cleanup
  %38 = extractvalue { ptr, i32 } %37, 0
  store ptr %38, ptr %9, align 8
  %39 = extractvalue { ptr, i32 } %37, 1
  store i32 %39, ptr %10, align 4
  br label %54

40:                                               ; preds = %27
  %41 = landingpad { ptr, i32 }
          cleanup
  %42 = extractvalue { ptr, i32 } %41, 0
  store ptr %42, ptr %9, align 8
  %43 = extractvalue { ptr, i32 } %41, 1
  store i32 %43, ptr %10, align 4
  br label %53

44:                                               ; preds = %29
  %45 = landingpad { ptr, i32 }
          cleanup
  %46 = extractvalue { ptr, i32 } %45, 0
  store ptr %46, ptr %9, align 8
  %47 = extractvalue { ptr, i32 } %45, 1
  store i32 %47, ptr %10, align 4
  br label %52

48:                                               ; preds = %30
  %49 = landingpad { ptr, i32 }
          cleanup
  %50 = extractvalue { ptr, i32 } %49, 0
  store ptr %50, ptr %9, align 8
  %51 = extractvalue { ptr, i32 } %49, 1
  store i32 %51, ptr %10, align 4
  call void @_ZN4cvc58internal9BitVectorD2Ev(ptr noundef nonnull align 8 dereferenceable(24) %12) #3
  br label %52

52:                                               ; preds = %48, %44
  call void @_ZN4cvc58internal9BitVectorD2Ev(ptr noundef nonnull align 8 dereferenceable(24) %13) #3
  br label %53

53:                                               ; preds = %52, %40
  call void @llvm.lifetime.end.p0(i64 24, ptr %13) #3
  call void @llvm.lifetime.end.p0(i64 24, ptr %12) #3
  call void @_ZN4cvc58internal9BitVectorD2Ev(ptr noundef nonnull align 8 dereferenceable(24) %11) #3
  br label %54

54:                                               ; preds = %53, %36
  call void @llvm.lifetime.end.p0(i64 24, ptr %11) #3
  call void @_ZN4cvc58internal9BitVectorD2Ev(ptr noundef nonnull align 8 dereferenceable(24) %8) #3
  br label %55

55:                                               ; preds = %54, %32
  call void @llvm.lifetime.end.p0(i64 24, ptr %8) #3
  call void @_ZN4cvc58internal9BitVectorD2Ev(ptr noundef nonnull align 8 dereferenceable(24) %7) #3
  call void @llvm.lifetime.end.p0(i64 24, ptr %7) #3
  br label %56

56:                                               ; preds = %55
  %57 = load ptr, ptr %9, align 8
  %58 = load i32, ptr %10, align 4
  %59 = insertvalue { ptr, i32 } poison, ptr %57, 0
  %60 = insertvalue { ptr, i32 } %59, i32 %58, 1
  resume { ptr, i32 } %60
}